target datalayout = "e-m:e-p270:32:32-p271:32:32-p272:64:64-i64:64-i128:128-f80:128-n8:16:32:64-S128"
target triple = "x86_64-pc-linux-gnu"

%"class.zmq::msg_t" = type { %union.anon }
%union.anon = type { %struct.anon }
%struct.anon = type { ptr, [34 x i8], i8, i8, i32, %"union.zmq::msg_t::group_t" }
%"union.zmq::msg_t::group_t" = type { %struct.anon.1 }
%struct.anon.1 = type { i8, ptr }
%struct.anon.2 = type { ptr, [33 x i8], i8, i8, i8, i32, %"union.zmq::msg_t::group_t" }
%struct.anon.0 = type { i8, [15 x i8] }
%struct.anon.3 = type { ptr, ptr, [26 x i8], i8, i8, i32, %"union.zmq::msg_t::group_t" }
%"struct.zmq::msg_t::content_t" = type { ptr, i64, ptr, ptr, %"class.zmq::atomic_counter_t" }
%"class.zmq::atomic_counter_t" = type { %"struct.std::atomic", [4 x i8] }
%"struct.std::atomic" = type { %"struct.std::__atomic_base" }
%"struct.std::__atomic_base" = type { i32 }
%struct.anon.4 = type { ptr, ptr, [26 x i8], i8, i8, i32, %"union.zmq::msg_t::group_t" }

@stderr = external global ptr, align 8
@.str = private unnamed_addr constant [30 x i8] c"Assertion failed: %s (%s:%d)\0A\00", align 1
@.str.1 = private unnamed_addr constant [14 x i8] c"NULL != data_\00", align 1
@.str.2 = private unnamed_addr constant [103 x i8] c"generated/home/dtcxzyw/WorkSpace/Projects/compilers/llvm-opt-benchmark/bench/libzmq/libzmq/src/msg.cpp\00", align 1
@.str.3 = private unnamed_addr constant [17 x i8] c"NULL != content_\00", align 1

; Function Attrs: mustprogress nounwind uwtable
define linkonce_odr void @_ZNSt13__atomic_baseIjEC2Ej(ptr noundef nonnull align 4 dereferenceable(4) %0, i32 noundef %1) unnamed_addr #0 comdat align 2 {
  %3 = alloca ptr, align 8
  %4 = alloca i32, align 4
  store ptr %0, ptr %3, align 8, !tbaa !35
  store i32 %1, ptr %4, align 4, !tbaa !14
  %5 = load ptr, ptr %3, align 8
  %6 = getelementptr inbounds nuw %"struct.std::__atomic_base", ptr %5, i32 0, i32 0
  %7 = load i32, ptr %4, align 4, !tbaa !14
  store i32 %7, ptr %6, align 4, !tbaa !37
  ret void
}

; Function Attrs: mustprogress nounwind uwtable
define linkonce_odr void @_ZNSt6atomicIjEC2Ej(ptr noundef nonnull align 4 dereferenceable(4) %0, i32 noundef %1) unnamed_addr #0 comdat align 2 {
  %3 = alloca ptr, align 8
  %4 = alloca i32, align 4
  store ptr %0, ptr %3, align 8, !tbaa !33
  store i32 %1, ptr %4, align 4, !tbaa !14
  %5 = load ptr, ptr %3, align 8
  %6 = load i32, ptr %4, align 4, !tbaa !14
  call void @_ZNSt13__atomic_baseIjEC2Ej(ptr noundef nonnull align 4 dereferenceable(4) %5, i32 noundef %6) #14
  ret void
}

; Function Attrs: mustprogress nounwind uwtable
define linkonce_odr void @_ZN3zmq16atomic_counter_tC2Ej(ptr noundef nonnull align 8 dereferenceable(4) %0, i32 noundef %1) unnamed_addr #0 comdat align 2 {
  %3 = alloca ptr, align 8
  %4 = alloca i32, align 4
  store ptr %0, ptr %3, align 8, !tbaa !26
  store i32 %1, ptr %4, align 4, !tbaa !14
  %5 = load ptr, ptr %3, align 8
  %6 = getelementptr inbounds nuw %"class.zmq::atomic_counter_t", ptr %5, i32 0, i32 0
  %7 = load i32, ptr %4, align 4, !tbaa !14
  call void @_ZNSt6atomicIjEC2Ej(ptr noundef nonnull align 4 dereferenceable(4) %6, i32 noundef %7) #14
  ret void
}

; Function Attrs: mustprogress uwtable
define noundef i32 @_ZN3zmq5msg_t21init_external_storageEPNS0_9content_tEPvmPFvS3_S3_ES3_(ptr noundef nonnull align 8 dereferenceable(64) %0, ptr noundef %1, ptr noundef %2, i64 noundef %3, ptr noundef %4, ptr noundef %5) #1 align 2 {
  %7 = alloca ptr, align 8
  %8 = alloca ptr, align 8
  %9 = alloca ptr, align 8
  %10 = alloca i64, align 8
  %11 = alloca ptr, align 8
  %12 = alloca ptr, align 8
  store ptr %0, ptr %7, align 8, !tbaa !3
  store ptr %1, ptr %8, align 8, !tbaa !12
  store ptr %2, ptr %9, align 8, !tbaa !9
  store i64 %3, ptr %10, align 8, !tbaa !10
  store ptr %4, ptr %11, align 8, !tbaa !9
  store ptr %5, ptr %12, align 8, !tbaa !9
  %13 = load ptr, ptr %7, align 8
  br label %14

14:                                               ; preds = %6
  %15 = load ptr, ptr %9, align 8, !tbaa !9
  %16 = icmp ne ptr null, %15
  %17 = xor i1 %16, true
  %18 = zext i1 %17 to i64
  %19 = call i64 @llvm.expect.i64(i64 %18, i64 0)
  %20 = icmp ne i64 %19, 0
  br i1 %20, label %21, label %26

21:                                               ; preds = %14
  %22 = load ptr, ptr @stderr, align 8, !tbaa !24
  %23 = call i32 (ptr, ptr, ...) @fprintf(ptr noundef %22, ptr noundef @.str, ptr noundef @.str.1, ptr noundef @.str.2, i32 noundef 117) #14
  %24 = load ptr, ptr @stderr, align 8, !tbaa !24
  %25 = call i32 @fflush(ptr noundef %24)
  call void @_ZN3zmq9zmq_abortEPKc(ptr noundef @.str.1)
  br label %26

26:                                               ; preds = %21, %14
  br label %27

27:                                               ; preds = %26
  br label %28

28:                                               ; preds = %27
  %29 = load ptr, ptr %8, align 8, !tbaa !12
  %30 = icmp ne ptr null, %29
  %31 = xor i1 %30, true
  %32 = zext i1 %31 to i64
  %33 = call i64 @llvm.expect.i64(i64 %32, i64 0)
  %34 = icmp ne i64 %33, 0
  br i1 %34, label %35, label %40

35:                                               ; preds = %28
  %36 = load ptr, ptr @stderr, align 8, !tbaa !24
  %37 = call i32 (ptr, ptr, ...) @fprintf(ptr noundef %36, ptr noundef @.str, ptr noundef @.str.3, ptr noundef @.str.2, i32 noundef 118) #14
  %38 = load ptr, ptr @stderr, align 8, !tbaa !24
  %39 = call i32 @fflush(ptr noundef %38)
  call void @_ZN3zmq9zmq_abortEPKc(ptr noundef @.str.3)
  br label %40

40:                                               ; preds = %35, %28
  br label %41

41:                                               ; preds = %40
  %42 = getelementptr inbounds nuw %"class.zmq::msg_t", ptr %13, i32 0, i32 0
  %43 = getelementptr inbounds nuw %struct.anon.4, ptr %42, i32 0, i32 0
  store ptr null, ptr %43, align 8, !tbaa !8
  %44 = getelementptr inbounds nuw %"class.zmq::msg_t", ptr %13, i32 0, i32 0
  %45 = getelementptr inbounds nuw %struct.anon.4, ptr %44, i32 0, i32 3
  store i8 105, ptr %45, align 2, !tbaa !8
  %46 = getelementptr inbounds nuw %"class.zmq::msg_t", ptr %13, i32 0, i32 0
  %47 = getelementptr inbounds nuw %struct.anon.4, ptr %46, i32 0, i32 4
  store i8 0, ptr %47, align 1, !tbaa !8
  %48 = getelementptr inbounds nuw %"class.zmq::msg_t", ptr %13, i32 0, i32 0
  %49 = getelementptr inbounds nuw %struct.anon.4, ptr %48, i32 0, i32 6
  %50 = getelementptr inbounds nuw %struct.anon.0, ptr %49, i32 0, i32 1
  %51 = getelementptr inbounds [15 x i8], ptr %50, i64 0, i64 0
  store i8 0, ptr %51, align 1, !tbaa !8
  %52 = getelementptr inbounds nuw %"class.zmq::msg_t", ptr %13, i32 0, i32 0
  %53 = getelementptr inbounds nuw %struct.anon.4, ptr %52, i32 0, i32 6
  store i8 0, ptr %53, align 8, !tbaa !8
  %54 = getelementptr inbounds nuw %"class.zmq::msg_t", ptr %13, i32 0, i32 0
  %55 = getelementptr inbounds nuw %struct.anon.4, ptr %54, i32 0, i32 5
  store i32 0, ptr %55, align 4, !tbaa !8
  %56 = load ptr, ptr %8, align 8, !tbaa !12
  %57 = getelementptr inbounds nuw %"class.zmq::msg_t", ptr %13, i32 0, i32 0
  %58 = getelementptr inbounds nuw %struct.anon.4, ptr %57, i32 0, i32 1
  store ptr %56, ptr %58, align 8, !tbaa !8
  %59 = load ptr, ptr %9, align 8, !tbaa !9
  %60 = getelementptr inbounds nuw %"class.zmq::msg_t", ptr %13, i32 0, i32 0
  %61 = getelementptr inbounds nuw %struct.anon.4, ptr %60, i32 0, i32 1
  %62 = load ptr, ptr %61, align 8, !tbaa !8
  %63 = getelementptr inbounds nuw %"struct.zmq::msg_t::content_t", ptr %62, i32 0, i32 0
  store ptr %59, ptr %63, align 8, !tbaa !16
  %64 = load i64, ptr %10, align 8, !tbaa !10
  %65 = getelementptr inbounds nuw %"class.zmq::msg_t", ptr %13, i32 0, i32 0
  %66 = getelementptr inbounds nuw %struct.anon.4, ptr %65, i32 0, i32 1
  %67 = load ptr, ptr %66, align 8, !tbaa !8
  %68 = getelementptr inbounds nuw %"struct.zmq::msg_t::content_t", ptr %67, i32 0, i32 1
  store i64 %64, ptr %68, align 8, !tbaa !21
  %69 = load ptr, ptr %11, align 8, !tbaa !9
  %70 = getelementptr inbounds nuw %"class.zmq::msg_t", ptr %13, i32 0, i32 0
  %71 = getelementptr inbounds nuw %struct.anon.4, ptr %70, i32 0, i32 1
  %72 = load ptr, ptr %71, align 8, !tbaa !8
  %73 = getelementptr inbounds nuw %"struct.zmq::msg_t::content_t", ptr %72, i32 0, i32 2
  store ptr %69, ptr %73, align 8, !tbaa !22
  %74 = load ptr, ptr %12, align 8, !tbaa !9
  %75 = getelementptr inbounds nuw %"class.zmq::msg_t", ptr %13, i32 0, i32 0
  %76 = getelementptr inbounds nuw %struct.anon.4, ptr %75, i32 0, i32 1
  %77 = load ptr, ptr %76, align 8, !tbaa !8
  %78 = getelementptr inbounds nuw %"struct.zmq::msg_t::content_t", ptr %77, i32 0, i32 3
  store ptr %74, ptr %78, align 8, !tbaa !23
  %79 = getelementptr inbounds nuw %"class.zmq::msg_t", ptr %13, i32 0, i32 0
  %80 = getelementptr inbounds nuw %struct.anon.4, ptr %79, i32 0, i32 1
  %81 = load ptr, ptr %80, align 8, !tbaa !8
  %82 = getelementptr inbounds nuw %"struct.zmq::msg_t::content_t", ptr %81, i32 0, i32 4
  call void @_ZN3zmq16atomic_counter_tC2Ej(ptr noundef nonnull align 8 dereferenceable(4) %82, i32 noundef 0) #14
  ret i32 0
}

; Function Attrs: mustprogress nounwind uwtable
define noundef i32 @_ZN3zmq5msg_t9init_sizeEm(ptr noundef nonnull align 8 dereferenceable(64) %0, i64 noundef %1) #0 align 2 {
  %3 = alloca i32, align 4
  %4 = alloca ptr, align 8
  %5 = alloca i64, align 8
  store ptr %0, ptr %4, align 8, !tbaa !3
  store i64 %1, ptr %5, align 8, !tbaa !10
  %6 = load ptr, ptr %4, align 8
  %7 = load i64, ptr %5, align 8, !tbaa !10
  %8 = icmp ule i64 %7, 33
  br i1 %8, label %9, label %28

9:                                                ; preds = %2
  %10 = getelementptr inbounds nuw %"class.zmq::msg_t", ptr %6, i32 0, i32 0
  %11 = getelementptr inbounds nuw %struct.anon.2, ptr %10, i32 0, i32 0
  store ptr null, ptr %11, align 8, !tbaa !8
  %12 = getelementptr inbounds nuw %"class.zmq::msg_t", ptr %6, i32 0, i32 0
  %13 = getelementptr inbounds nuw %struct.anon.2, ptr %12, i32 0, i32 3
  store i8 101, ptr %13, align 2, !tbaa !8
  %14 = getelementptr inbounds nuw %"class.zmq::msg_t", ptr %6, i32 0, i32 0
  %15 = getelementptr inbounds nuw %struct.anon.2, ptr %14, i32 0, i32 4
  store i8 0, ptr %15, align 1, !tbaa !8
  %16 = load i64, ptr %5, align 8, !tbaa !10
  %17 = trunc i64 %16 to i8
  %18 = getelementptr inbounds nuw %"class.zmq::msg_t", ptr %6, i32 0, i32 0
  %19 = getelementptr inbounds nuw %struct.anon.2, ptr %18, i32 0, i32 2
  store i8 %17, ptr %19, align 1, !tbaa !8
  %20 = getelementptr inbounds nuw %"class.zmq::msg_t", ptr %6, i32 0, i32 0
  %21 = getelementptr inbounds nuw %struct.anon.2, ptr %20, i32 0, i32 6
  %22 = getelementptr inbounds nuw %struct.anon.0, ptr %21, i32 0, i32 1
  %23 = getelementptr inbounds [15 x i8], ptr %22, i64 0, i64 0
  store i8 0, ptr %23, align 1, !tbaa !8
  %24 = getelementptr inbounds nuw %"class.zmq::msg_t", ptr %6, i32 0, i32 0
  %25 = getelementptr inbounds nuw %struct.anon.2, ptr %24, i32 0, i32 6
  store i8 0, ptr %25, align 8, !tbaa !8
  %26 = getelementptr inbounds nuw %"class.zmq::msg_t", ptr %6, i32 0, i32 0
  %27 = getelementptr inbounds nuw %struct.anon.2, ptr %26, i32 0, i32 5
  store i32 0, ptr %27, align 4, !tbaa !8
  br label %92

28:                                               ; preds = %2
  %29 = getelementptr inbounds nuw %"class.zmq::msg_t", ptr %6, i32 0, i32 0
  %30 = getelementptr inbounds nuw %struct.anon.3, ptr %29, i32 0, i32 0
  store ptr null, ptr %30, align 8, !tbaa !8
  %31 = getelementptr inbounds nuw %"class.zmq::msg_t", ptr %6, i32 0, i32 0
  %32 = getelementptr inbounds nuw %struct.anon.3, ptr %31, i32 0, i32 3
  store i8 102, ptr %32, align 2, !tbaa !8
  %33 = getelementptr inbounds nuw %"class.zmq::msg_t", ptr %6, i32 0, i32 0
  %34 = getelementptr inbounds nuw %struct.anon.3, ptr %33, i32 0, i32 4
  store i8 0, ptr %34, align 1, !tbaa !8
  %35 = getelementptr inbounds nuw %"class.zmq::msg_t", ptr %6, i32 0, i32 0
  %36 = getelementptr inbounds nuw %struct.anon.3, ptr %35, i32 0, i32 6
  %37 = getelementptr inbounds nuw %struct.anon.0, ptr %36, i32 0, i32 1
  %38 = getelementptr inbounds [15 x i8], ptr %37, i64 0, i64 0
  store i8 0, ptr %38, align 1, !tbaa !8
  %39 = getelementptr inbounds nuw %"class.zmq::msg_t", ptr %6, i32 0, i32 0
  %40 = getelementptr inbounds nuw %struct.anon.3, ptr %39, i32 0, i32 6
  store i8 0, ptr %40, align 8, !tbaa !8
  %41 = getelementptr inbounds nuw %"class.zmq::msg_t", ptr %6, i32 0, i32 0
  %42 = getelementptr inbounds nuw %struct.anon.3, ptr %41, i32 0, i32 5
  store i32 0, ptr %42, align 4, !tbaa !8
  %43 = getelementptr inbounds nuw %"class.zmq::msg_t", ptr %6, i32 0, i32 0
  %44 = getelementptr inbounds nuw %struct.anon.3, ptr %43, i32 0, i32 1
  store ptr null, ptr %44, align 8, !tbaa !8
  %45 = load i64, ptr %5, align 8, !tbaa !10
  %46 = add i64 40, %45
  %47 = load i64, ptr %5, align 8, !tbaa !10
  %48 = icmp ugt i64 %46, %47
  br i1 %48, label %49, label %55

49:                                               ; preds = %28
  %50 = load i64, ptr %5, align 8, !tbaa !10
  %51 = add i64 40, %50
  %52 = call noalias ptr @malloc(i64 noundef %51) #15
  %53 = getelementptr inbounds nuw %"class.zmq::msg_t", ptr %6, i32 0, i32 0
  %54 = getelementptr inbounds nuw %struct.anon.3, ptr %53, i32 0, i32 1
  store ptr %52, ptr %54, align 8, !tbaa !8
  br label %55

55:                                               ; preds = %49, %28
  %56 = getelementptr inbounds nuw %"class.zmq::msg_t", ptr %6, i32 0, i32 0
  %57 = getelementptr inbounds nuw %struct.anon.3, ptr %56, i32 0, i32 1
  %58 = load ptr, ptr %57, align 8, !tbaa !8
  %59 = icmp ne ptr %58, null
  %60 = xor i1 %59, true
  %61 = zext i1 %60 to i64
  %62 = call i64 @llvm.expect.i64(i64 %61, i64 0)
  %63 = icmp ne i64 %62, 0
  br i1 %63, label %64, label %66

64:                                               ; preds = %55
  %65 = call ptr @__errno_location() #16
  store i32 12, ptr %65, align 4, !tbaa !14
  store i32 -1, ptr %3, align 4
  br label %93

66:                                               ; preds = %55
  %67 = getelementptr inbounds nuw %"class.zmq::msg_t", ptr %6, i32 0, i32 0
  %68 = getelementptr inbounds nuw %struct.anon.3, ptr %67, i32 0, i32 1
  %69 = load ptr, ptr %68, align 8, !tbaa !8
  %70 = getelementptr inbounds %"struct.zmq::msg_t::content_t", ptr %69, i64 1
  %71 = getelementptr inbounds nuw %"class.zmq::msg_t", ptr %6, i32 0, i32 0
  %72 = getelementptr inbounds nuw %struct.anon.3, ptr %71, i32 0, i32 1
  %73 = load ptr, ptr %72, align 8, !tbaa !8
  %74 = getelementptr inbounds nuw %"struct.zmq::msg_t::content_t", ptr %73, i32 0, i32 0
  store ptr %70, ptr %74, align 8, !tbaa !16
  %75 = load i64, ptr %5, align 8, !tbaa !10
  %76 = getelementptr inbounds nuw %"class.zmq::msg_t", ptr %6, i32 0, i32 0
  %77 = getelementptr inbounds nuw %struct.anon.3, ptr %76, i32 0, i32 1
  %78 = load ptr, ptr %77, align 8, !tbaa !8
  %79 = getelementptr inbounds nuw %"struct.zmq::msg_t::content_t", ptr %78, i32 0, i32 1
  store i64 %75, ptr %79, align 8, !tbaa !21
  %80 = getelementptr inbounds nuw %"class.zmq::msg_t", ptr %6, i32 0, i32 0
  %81 = getelementptr inbounds nuw %struct.anon.3, ptr %80, i32 0, i32 1
  %82 = load ptr, ptr %81, align 8, !tbaa !8
  %83 = getelementptr inbounds nuw %"struct.zmq::msg_t::content_t", ptr %82, i32 0, i32 2
  store ptr null, ptr %83, align 8, !tbaa !22
  %84 = getelementptr inbounds nuw %"class.zmq::msg_t", ptr %6, i32 0, i32 0
  %85 = getelementptr inbounds nuw %struct.anon.3, ptr %84, i32 0, i32 1
  %86 = load ptr, ptr %85, align 8, !tbaa !8
  %87 = getelementptr inbounds nuw %"struct.zmq::msg_t::content_t", ptr %86, i32 0, i32 3
  store ptr null, ptr %87, align 8, !tbaa !23
  %88 = getelementptr inbounds nuw %"class.zmq::msg_t", ptr %6, i32 0, i32 0
  %89 = getelementptr inbounds nuw %struct.anon.3, ptr %88, i32 0, i32 1
  %90 = load ptr, ptr %89, align 8, !tbaa !8
  %91 = getelementptr inbounds nuw %"struct.zmq::msg_t::content_t", ptr %90, i32 0, i32 4
  call void @_ZN3zmq16atomic_counter_tC2Ej(ptr noundef nonnull align 8 dereferenceable(4) %91, i32 noundef 0) #14
  br label %92

92:                                               ; preds = %66, %9
  store i32 0, ptr %3, align 4
  br label %93

93:                                               ; preds = %92, %64
  %94 = load i32, ptr %3, align 4
  ret i32 %94
}

; Function Attrs: mustprogress uwtable
define noundef i32 @_ZN3zmq5msg_t4initEPvmPFvS1_S1_ES1_PNS0_9content_tE(ptr noundef nonnull align 8 dereferenceable(64) %0, ptr noundef %1, i64 noundef %2, ptr noundef %3, ptr noundef %4, ptr noundef %5) #1 align 2 {
  %7 = alloca i32, align 4
  %8 = alloca ptr, align 8
  %9 = alloca ptr, align 8
  %10 = alloca i64, align 8
  %11 = alloca ptr, align 8
  %12 = alloca ptr, align 8
  %13 = alloca ptr, align 8
  %14 = alloca i32, align 4
  %15 = alloca i32, align 4
  store ptr %0, ptr %8, align 8, !tbaa !3
  store ptr %1, ptr %9, align 8, !tbaa !9
  store i64 %2, ptr %10, align 8, !tbaa !10
  store ptr %3, ptr %11, align 8, !tbaa !9
  store ptr %4, ptr %12, align 8, !tbaa !9
  store ptr %5, ptr %13, align 8, !tbaa !12
  %16 = load ptr, ptr %8, align 8
  %17 = load i64, ptr %10, align 8, !tbaa !10
  %18 = icmp ule i64 %17, 33
  br i1 %18, label %19, label %30

19:                                               ; preds = %6
  call void @llvm.lifetime.start.p0(i64 4, ptr %14) #14
  %20 = load i64, ptr %10, align 8, !tbaa !10
  %21 = call noundef i32 @_ZN3zmq5msg_t9init_sizeEm(ptr noundef nonnull align 8 dereferenceable(64) %16, i64 noundef %20)
  store i32 %21, ptr %14, align 4, !tbaa !14
  %22 = load i32, ptr %14, align 4, !tbaa !14
  %23 = icmp ne i32 %22, -1
  br i1 %23, label %24, label %28

24:                                               ; preds = %19
  %25 = call noundef ptr @_ZN3zmq5msg_t4dataEv(ptr noundef nonnull align 8 dereferenceable(64) %16)
  %26 = load ptr, ptr %9, align 8, !tbaa !9
  %27 = load i64, ptr %10, align 8, !tbaa !10
  call void @llvm.memcpy.p0.p0.i64(ptr align 1 %25, ptr align 1 %26, i64 %27, i1 false)
  store i32 0, ptr %7, align 4
  store i32 1, ptr %15, align 4
  br label %29

28:                                               ; preds = %19
  store i32 -1, ptr %7, align 4
  store i32 1, ptr %15, align 4
  br label %29

29:                                               ; preds = %28, %24
  call void @llvm.lifetime.end.p0(i64 4, ptr %14) #14
  br label %46

30:                                               ; preds = %6
  %31 = load ptr, ptr %13, align 8, !tbaa !12
  %32 = icmp ne ptr %31, null
  br i1 %32, label %33, label %40

33:                                               ; preds = %30
  %34 = load ptr, ptr %13, align 8, !tbaa !12
  %35 = load ptr, ptr %9, align 8, !tbaa !9
  %36 = load i64, ptr %10, align 8, !tbaa !10
  %37 = load ptr, ptr %11, align 8, !tbaa !9
  %38 = load ptr, ptr %12, align 8, !tbaa !9
  %39 = call noundef i32 @_ZN3zmq5msg_t21init_external_storageEPNS0_9content_tEPvmPFvS3_S3_ES3_(ptr noundef nonnull align 8 dereferenceable(64) %16, ptr noundef %34, ptr noundef %35, i64 noundef %36, ptr noundef %37, ptr noundef %38)
  store i32 %39, ptr %7, align 4
  br label %46

40:                                               ; preds = %30
  %41 = load ptr, ptr %9, align 8, !tbaa !9
  %42 = load i64, ptr %10, align 8, !tbaa !10
  %43 = load ptr, ptr %11, align 8, !tbaa !9
  %44 = load ptr, ptr %12, align 8, !tbaa !9
  %45 = call noundef i32 @_ZN3zmq5msg_t9init_dataEPvmPFvS1_S1_ES1_(ptr noundef nonnull align 8 dereferenceable(64) %16, ptr noundef %41, i64 noundef %42, ptr noundef %43, ptr noundef %44)
  store i32 %45, ptr %7, align 4
  br label %46

46:                                               ; preds = %40, %33, %29
  %47 = load i32, ptr %7, align 4
  ret i32 %47
}