; Function Attrs: mustprogress uwtable
define noundef range(i32 -1, 1) i32 @_ZN3zmq5msg_t4initEPvmPFvS1_S1_ES1_PNS0_9content_tE(ptr noundef nonnull align 8 dereferenceable(64) initializes((0, 8), (42, 50)) %0, ptr noundef %1, i64 noundef %2, ptr noundef %3, ptr noundef %4, ptr noundef %5) local_unnamed_addr #1 align 2 {
  %7 = icmp ult i64 %2, 34
  br i1 %7, label %8, label %17

8:                                                ; preds = %6
  store ptr null, ptr %0, align 8, !tbaa !3
  %9 = getelementptr inbounds nuw i8, ptr %0, i64 42
  %10 = getelementptr inbounds nuw i8, ptr %0, i64 43
  store i8 101, ptr %9, align 2, !tbaa !3
  store i8 0, ptr %10, align 1, !tbaa !3
  %11 = trunc nuw nsw i64 %2 to i8
  %12 = getelementptr inbounds nuw i8, ptr %0, i64 41
  store i8 %11, ptr %12, align 1, !tbaa !3
  %13 = getelementptr inbounds nuw i8, ptr %0, i64 48
  %14 = getelementptr inbounds nuw i8, ptr %0, i64 49
  store i8 0, ptr %14, align 1, !tbaa !3
  store i8 0, ptr %13, align 8, !tbaa !3
  %15 = getelementptr inbounds nuw i8, ptr %0, i64 44
  store i32 0, ptr %15, align 4, !tbaa !3
  %16 = tail call noundef ptr @_ZN3zmq5msg_t4dataEv(ptr noundef nonnull align 8 dereferenceable(64) %0)
  tail call void @llvm.memcpy.p0.p0.i64(ptr align 1 %16, ptr align 1 %1, i64 %2, i1 false)
  br label %37

17:                                               ; preds = %6
  %.not = icmp eq ptr %5, null
  br i1 %.not, label %35, label %18

18:                                               ; preds = %17
  %.not.i20 = icmp eq ptr %1, null
  br i1 %.not.i20, label %19, label %_ZN3zmq5msg_t21init_external_storageEPNS0_9content_tEPvmPFvS3_S3_ES3_.exit, !prof !6

19:                                               ; preds = %18
  %20 = load ptr, ptr @stderr, align 8, !tbaa !7
  %21 = tail call i32 (ptr, ptr, ...) @fprintf(ptr noundef %20, ptr noundef nonnull @.str, ptr noundef nonnull @.str.1, ptr noundef nonnull @.str.2, i32 noundef 117) #20
  %22 = load ptr, ptr @stderr, align 8, !tbaa !7
  %23 = tail call i32 @fflush(ptr noundef %22)
  tail call void @_ZN3zmq9zmq_abortEPKc(ptr noundef nonnull @.str.1)
  br label %_ZN3zmq5msg_t21init_external_storageEPNS0_9content_tEPvmPFvS3_S3_ES3_.exit

_ZN3zmq5msg_t21init_external_storageEPNS0_9content_tEPvmPFvS3_S3_ES3_.exit: ; preds = %18, %19
  store ptr null, ptr %0, align 8, !tbaa !3
  %24 = getelementptr inbounds nuw i8, ptr %0, i64 42
  store i8 105, ptr %24, align 2, !tbaa !3
  %25 = getelementptr inbounds nuw i8, ptr %0, i64 43
  %26 = getelementptr inbounds nuw i8, ptr %0, i64 8
  tail call void @llvm.memset.p0.i64(ptr noundef nonnull align 1 dereferenceable(7) %25, i8 0, i64 7, i1 false)
  store ptr %5, ptr %26, align 8, !tbaa !3
  store ptr %1, ptr %5, align 8, !tbaa !10
  %27 = load ptr, ptr %26, align 8, !tbaa !3
  %28 = getelementptr inbounds nuw i8, ptr %27, i64 8
  store i64 %2, ptr %28, align 8, !tbaa !17
  %29 = load ptr, ptr %26, align 8, !tbaa !3
  %30 = getelementptr inbounds nuw i8, ptr %29, i64 16
  store ptr %3, ptr %30, align 8, !tbaa !18
  %31 = load ptr, ptr %26, align 8, !tbaa !3
  %32 = getelementptr inbounds nuw i8, ptr %31, i64 24
  store ptr %4, ptr %32, align 8, !tbaa !19
  %33 = load ptr, ptr %26, align 8, !tbaa !3
  %34 = getelementptr inbounds nuw i8, ptr %33, i64 32
  store i32 0, ptr %34, align 4, !tbaa !20
  br label %37

35:                                               ; preds = %17
  %36 = tail call noundef i32 @_ZN3zmq5msg_t9init_dataEPvmPFvS1_S1_ES1_(ptr noundef nonnull align 8 dereferenceable(64) %0, ptr noundef %1, i64 noundef %2, ptr noundef %3, ptr noundef %4)
  br label %37

37:                                               ; preds = %8, %35, %_ZN3zmq5msg_t21init_external_storageEPNS0_9content_tEPvmPFvS3_S3_ES3_.exit
  %.1 = phi i32 [ 0, %_ZN3zmq5msg_t21init_external_storageEPNS0_9content_tEPvmPFvS3_S3_ES3_.exit ], [ %36, %35 ], [ 0, %8 ]
  ret i32 %.1
}